target datalayout = "e-m:e-p270:32:32-p271:32:32-p272:64:64-i64:64-i128:128-f80:128-n8:16:32:64-S128"
target triple = "x86_64-pc-linux-gnu"

%struct.ForEachState = type { ptr, i32 }
%struct.List = type { i32, i32, i32, ptr, [0 x %union.ListCell] }
%union.ListCell = type { ptr }
%struct.IndexOptInfo = type { i32, i32, i32, ptr, i32, double, i32, i32, i32, ptr, ptr, ptr, ptr, ptr, ptr, ptr, ptr, ptr, i32, ptr, ptr, ptr, ptr, i8, i8, i8, i8, i8, i8, i8, i8, i8, i8, i8, i8, i8, ptr }

; Function Attrs: nounwind uwtable
define dso_local ptr @add_predicate_to_index_quals(ptr noundef %0, ptr noundef %1) #0 {
  %3 = alloca ptr, align 8
  %4 = alloca ptr, align 8
  %5 = alloca ptr, align 8
  %6 = alloca ptr, align 8
  %7 = alloca ptr, align 8
  %8 = alloca i32, align 4
  %9 = alloca %struct.ForEachState, align 8
  %10 = alloca ptr, align 8
  %11 = alloca ptr, align 8
  %12 = alloca %union.ListCell, align 8
  store ptr %0, ptr %4, align 8
  store ptr %1, ptr %5, align 8
  call void @llvm.lifetime.start.p0(i64 8, ptr %6) #10
  store ptr null, ptr %6, align 8
  call void @llvm.lifetime.start.p0(i64 8, ptr %7) #10
  %13 = load ptr, ptr %4, align 8
  %14 = getelementptr inbounds nuw %struct.IndexOptInfo, ptr %13, i32 0, i32 20
  %15 = load ptr, ptr %14, align 8
  %16 = icmp eq ptr %15, null
  br i1 %16, label %17, label %19

17:                                               ; preds = %2
  %18 = load ptr, ptr %5, align 8
  store ptr %18, ptr %3, align 8
  store i32 1, ptr %8, align 4
  br label %75

19:                                               ; preds = %2
  call void @llvm.lifetime.start.p0(i64 16, ptr %9) #10
  %20 = getelementptr inbounds nuw %struct.ForEachState, ptr %9, i32 0, i32 0
  %21 = load ptr, ptr %4, align 8
  %22 = getelementptr inbounds nuw %struct.IndexOptInfo, ptr %21, i32 0, i32 20
  %23 = load ptr, ptr %22, align 8
  store ptr %23, ptr %20, align 8
  %24 = getelementptr inbounds nuw %struct.ForEachState, ptr %9, i32 0, i32 1
  store i32 0, ptr %24, align 8
  %25 = getelementptr i8, ptr %9, i64 12
  call void @llvm.memset.p0.i64(ptr align 4 %25, i8 0, i64 4, i1 false)
  br label %26

26:                                               ; preds = %67, %19
  %27 = getelementptr inbounds nuw %struct.ForEachState, ptr %9, i32 0, i32 0
  %28 = load ptr, ptr %27, align 8
  %29 = icmp ne ptr %28, null
  br i1 %29, label %30, label %47

30:                                               ; preds = %26
  %31 = getelementptr inbounds nuw %struct.ForEachState, ptr %9, i32 0, i32 1
  %32 = load i32, ptr %31, align 8
  %33 = getelementptr inbounds nuw %struct.ForEachState, ptr %9, i32 0, i32 0
  %34 = load ptr, ptr %33, align 8
  %35 = getelementptr inbounds nuw %struct.List, ptr %34, i32 0, i32 1
  %36 = load i32, ptr %35, align 4
  %37 = icmp slt i32 %32, %36
  br i1 %37, label %38, label %47

38:                                               ; preds = %30
  %39 = getelementptr inbounds nuw %struct.ForEachState, ptr %9, i32 0, i32 0
  %40 = load ptr, ptr %39, align 8
  %41 = getelementptr inbounds nuw %struct.List, ptr %40, i32 0, i32 3
  %42 = load ptr, ptr %41, align 8
  %43 = getelementptr inbounds nuw %struct.ForEachState, ptr %9, i32 0, i32 1
  %44 = load i32, ptr %43, align 8
  %45 = sext i32 %44 to i64
  %46 = getelementptr inbounds %union.ListCell, ptr %42, i64 %45
  store ptr %46, ptr %7, align 8
  br label %48

47:                                               ; preds = %30, %26
  store ptr null, ptr %7, align 8
  br label %48

48:                                               ; preds = %47, %38
  %49 = phi i32 [ 1, %38 ], [ 0, %47 ]
  %50 = icmp ne i32 %49, 0
  br i1 %50, label %52, label %51

51:                                               ; preds = %48
  store i32 2, ptr %8, align 4
  call void @llvm.lifetime.end.p0(i64 16, ptr %9) #10
  br label %71

52:                                               ; preds = %48
  call void @llvm.lifetime.start.p0(i64 8, ptr %10) #10
  %53 = load ptr, ptr %7, align 8
  %54 = load ptr, ptr %53, align 8
  store ptr %54, ptr %10, align 8
  call void @llvm.lifetime.start.p0(i64 8, ptr %11) #10
  %55 = load ptr, ptr %10, align 8
  store ptr %55, ptr %12, align 8
  %56 = getelementptr inbounds nuw %union.ListCell, ptr %12, i32 0, i32 0
  %57 = load ptr, ptr %56, align 8
  %58 = call ptr @list_make1_impl(i32 noundef 1, ptr %57)
  store ptr %58, ptr %11, align 8
  %59 = load ptr, ptr %11, align 8
  %60 = load ptr, ptr %5, align 8
  %61 = call zeroext i1 @predicate_implied_by(ptr noundef %59, ptr noundef %60, i1 noundef zeroext false)
  br i1 %61, label %66, label %62

62:                                               ; preds = %52
  %63 = load ptr, ptr %6, align 8
  %64 = load ptr, ptr %11, align 8
  %65 = call ptr @list_concat(ptr noundef %63, ptr noundef %64)
  store ptr %65, ptr %6, align 8
  br label %66

66:                                               ; preds = %62, %52
  call void @llvm.lifetime.end.p0(i64 8, ptr %11) #10
  call void @llvm.lifetime.end.p0(i64 8, ptr %10) #10
  br label %67

67:                                               ; preds = %66
  %68 = getelementptr inbounds nuw %struct.ForEachState, ptr %9, i32 0, i32 1
  %69 = load i32, ptr %68, align 8
  %70 = add i32 %69, 1
  store i32 %70, ptr %68, align 8
  br label %26, !llvm.loop !55

71:                                               ; preds = %51
  %72 = load ptr, ptr %6, align 8
  %73 = load ptr, ptr %5, align 8
  %74 = call ptr @list_concat(ptr noundef %72, ptr noundef %73)
  store ptr %74, ptr %3, align 8
  store i32 1, ptr %8, align 4
  br label %75

75:                                               ; preds = %71, %17
  call void @llvm.lifetime.end.p0(i64 8, ptr %7) #10
  call void @llvm.lifetime.end.p0(i64 8, ptr %6) #10
  %76 = load ptr, ptr %3, align 8
  ret ptr %76
}