; Function Attrs: nounwind uwtable
define dso_local ptr @add_predicate_to_index_quals(ptr noundef readonly captures(none) %0, ptr noundef %1) local_unnamed_addr #0 {
  %3 = getelementptr inbounds nuw i8, ptr %0, i64 144
  %4 = load ptr, ptr %3, align 8
  %5 = icmp eq ptr %4, null
  br i1 %5, label %21, label %.preheader

.preheader:                                       ; preds = %2
  %6 = getelementptr inbounds nuw i8, ptr %4, i64 4
  %7 = load i32, ptr %6, align 4
  %.not22 = icmp sgt i32 %7, 0
  br i1 %.not22, label %.lr.ph, label %._crit_edge

.lr.ph:                                           ; preds = %.preheader
  %8 = getelementptr inbounds nuw i8, ptr %4, i64 16
  br label %10

._crit_edge:                                      ; preds = %18, %.preheader
  %.017.lcssa = phi ptr [ null, %.preheader ], [ %.1, %18 ]
  %9 = tail call ptr @list_concat(ptr noundef %.017.lcssa, ptr noundef %1) #12
  br label %21

10:                                               ; preds = %.lr.ph, %18
  %indvars.iv = phi i64 [ 0, %.lr.ph ], [ %indvars.iv.next, %18 ]
  %.01724 = phi ptr [ null, %.lr.ph ], [ %.1, %18 ]
  %11 = load ptr, ptr %8, align 8
  %12 = getelementptr inbounds nuw %union.ListCell, ptr %11, i64 %indvars.iv
  %13 = load ptr, ptr %12, align 8
  %14 = tail call ptr @list_make1_impl(i32 noundef 1, ptr %13) #12
  %15 = tail call zeroext i1 @predicate_implied_by(ptr noundef %14, ptr noundef %1, i1 noundef zeroext false) #12
  br i1 %15, label %18, label %16

16:                                               ; preds = %10
  %17 = tail call ptr @list_concat(ptr noundef %.01724, ptr noundef %14) #12
  br label %18

18:                                               ; preds = %16, %10
  %.1 = phi ptr [ %.01724, %10 ], [ %17, %16 ]
  %indvars.iv.next = add nuw nsw i64 %indvars.iv, 1
  %19 = load i32, ptr %6, align 4
  %20 = sext i32 %19 to i64
  %.not = icmp slt i64 %indvars.iv.next, %20
  br i1 %.not, label %10, label %._crit_edge, !llvm.loop !44

21:                                               ; preds = %2, %._crit_edge
  %.0 = phi ptr [ %9, %._crit_edge ], [ %1, %2 ]
  ret ptr %.0
}